target datalayout = "e-m:e-p270:32:32-p271:32:32-p272:64:64-i64:64-i128:128-f80:128-n8:16:32:64-S128"
target triple = "x86_64-pc-linux-gnu"

%struct.QualCost = type { double, double }
%struct.Path = type { i32, i32, ptr, ptr, ptr, i8, i8, i32, double, i32, double, double, ptr }
%struct.PathTarget = type { i32, ptr, ptr, %struct.QualCost, i32, i32 }

@cpu_tuple_cost = dso_local global double 1.000000e-02, align 8

; Function Attrs: nounwind uwtable
define dso_local void @cost_recursive_union(ptr noundef %0, ptr noundef %1, ptr noundef %2) #0 {
  %4 = alloca ptr, align 8
  %5 = alloca ptr, align 8
  %6 = alloca ptr, align 8
  %7 = alloca double, align 8
  %8 = alloca double, align 8
  %9 = alloca double, align 8
  store ptr %0, ptr %4, align 8
  store ptr %1, ptr %5, align 8
  store ptr %2, ptr %6, align 8
  call void @llvm.lifetime.start.p0(i64 8, ptr %7) #9
  call void @llvm.lifetime.start.p0(i64 8, ptr %8) #9
  call void @llvm.lifetime.start.p0(i64 8, ptr %9) #9
  %10 = load ptr, ptr %5, align 8
  %11 = getelementptr inbounds nuw %struct.Path, ptr %10, i32 0, i32 10
  %12 = load double, ptr %11, align 8
  store double %12, ptr %7, align 8
  %13 = load ptr, ptr %5, align 8
  %14 = getelementptr inbounds nuw %struct.Path, ptr %13, i32 0, i32 11
  %15 = load double, ptr %14, align 8
  store double %15, ptr %8, align 8
  %16 = load ptr, ptr %5, align 8
  %17 = getelementptr inbounds nuw %struct.Path, ptr %16, i32 0, i32 8
  %18 = load double, ptr %17, align 8
  store double %18, ptr %9, align 8
  %19 = load ptr, ptr %6, align 8
  %20 = getelementptr inbounds nuw %struct.Path, ptr %19, i32 0, i32 11
  %21 = load double, ptr %20, align 8
  %22 = load double, ptr %8, align 8
  %23 = call double @llvm.fmuladd.f64(double 1.000000e+01, double %21, double %22)
  store double %23, ptr %8, align 8
  %24 = load ptr, ptr %6, align 8
  %25 = getelementptr inbounds nuw %struct.Path, ptr %24, i32 0, i32 8
  %26 = load double, ptr %25, align 8
  %27 = load double, ptr %9, align 8
  %28 = call double @llvm.fmuladd.f64(double 1.000000e+01, double %26, double %27)
  store double %28, ptr %9, align 8
  %29 = load double, ptr @cpu_tuple_cost, align 8
  %30 = load double, ptr %9, align 8
  %31 = load double, ptr %8, align 8
  %32 = call double @llvm.fmuladd.f64(double %29, double %30, double %31)
  store double %32, ptr %8, align 8
  %33 = load ptr, ptr %5, align 8
  %34 = getelementptr inbounds nuw %struct.Path, ptr %33, i32 0, i32 9
  %35 = load i32, ptr %34, align 8
  %36 = load ptr, ptr %6, align 8
  %37 = getelementptr inbounds nuw %struct.Path, ptr %36, i32 0, i32 9
  %38 = load i32, ptr %37, align 8
  %39 = add i32 %35, %38
  %40 = load ptr, ptr %4, align 8
  %41 = getelementptr inbounds nuw %struct.Path, ptr %40, i32 0, i32 9
  store i32 %39, ptr %41, align 8
  %42 = load double, ptr %7, align 8
  %43 = load ptr, ptr %4, align 8
  %44 = getelementptr inbounds nuw %struct.Path, ptr %43, i32 0, i32 10
  store double %42, ptr %44, align 8
  %45 = load double, ptr %8, align 8
  %46 = load ptr, ptr %4, align 8
  %47 = getelementptr inbounds nuw %struct.Path, ptr %46, i32 0, i32 11
  store double %45, ptr %47, align 8
  %48 = load double, ptr %9, align 8
  %49 = load ptr, ptr %4, align 8
  %50 = getelementptr inbounds nuw %struct.Path, ptr %49, i32 0, i32 8
  store double %48, ptr %50, align 8
  %51 = load ptr, ptr %5, align 8
  %52 = getelementptr inbounds nuw %struct.Path, ptr %51, i32 0, i32 3
  %53 = load ptr, ptr %52, align 8
  %54 = getelementptr inbounds nuw %struct.PathTarget, ptr %53, i32 0, i32 4
  %55 = load i32, ptr %54, align 8
  %56 = load ptr, ptr %6, align 8
  %57 = getelementptr inbounds nuw %struct.Path, ptr %56, i32 0, i32 3
  %58 = load ptr, ptr %57, align 8
  %59 = getelementptr inbounds nuw %struct.PathTarget, ptr %58, i32 0, i32 4
  %60 = load i32, ptr %59, align 8
  %61 = icmp sgt i32 %55, %60
  br i1 %61, label %62, label %68

62:                                               ; preds = %3
  %63 = load ptr, ptr %5, align 8
  %64 = getelementptr inbounds nuw %struct.Path, ptr %63, i32 0, i32 3
  %65 = load ptr, ptr %64, align 8
  %66 = getelementptr inbounds nuw %struct.PathTarget, ptr %65, i32 0, i32 4
  %67 = load i32, ptr %66, align 8
  br label %74

68:                                               ; preds = %3
  %69 = load ptr, ptr %6, align 8
  %70 = getelementptr inbounds nuw %struct.Path, ptr %69, i32 0, i32 3
  %71 = load ptr, ptr %70, align 8
  %72 = getelementptr inbounds nuw %struct.PathTarget, ptr %71, i32 0, i32 4
  %73 = load i32, ptr %72, align 8
  br label %74

74:                                               ; preds = %68, %62
  %75 = phi i32 [ %67, %62 ], [ %73, %68 ]
  %76 = load ptr, ptr %4, align 8
  %77 = getelementptr inbounds nuw %struct.Path, ptr %76, i32 0, i32 3
  %78 = load ptr, ptr %77, align 8
  %79 = getelementptr inbounds nuw %struct.PathTarget, ptr %78, i32 0, i32 4
  store i32 %75, ptr %79, align 8
  call void @llvm.lifetime.end.p0(i64 8, ptr %9) #9
  call void @llvm.lifetime.end.p0(i64 8, ptr %8) #9
  call void @llvm.lifetime.end.p0(i64 8, ptr %7) #9
  ret void
}