; Function Attrs: mustprogress nofree norecurse nosync nounwind willreturn memory(readwrite, inaccessiblemem: none) uwtable
define dso_local void @cost_recursive_union(ptr noundef captures(none) initializes((40, 52), (56, 72)) %0, ptr noundef readonly captures(none) %1, ptr noundef readonly captures(none) %2) local_unnamed_addr #11 {
  %4 = getelementptr inbounds nuw i8, ptr %1, i64 56
  %5 = load double, ptr %4, align 8
  %6 = getelementptr inbounds nuw i8, ptr %1, i64 64
  %7 = load double, ptr %6, align 8
  %8 = getelementptr inbounds nuw i8, ptr %1, i64 40
  %9 = load double, ptr %8, align 8
  %10 = getelementptr inbounds nuw i8, ptr %2, i64 64
  %11 = load double, ptr %10, align 8
  %12 = tail call double @llvm.fmuladd.f64(double %11, double 1.000000e+01, double %7)
  %13 = getelementptr inbounds nuw i8, ptr %2, i64 40
  %14 = load double, ptr %13, align 8
  %15 = tail call double @llvm.fmuladd.f64(double %14, double 1.000000e+01, double %9)
  %16 = load double, ptr @cpu_tuple_cost, align 8
  %17 = tail call double @llvm.fmuladd.f64(double %16, double %15, double %12)
  %18 = getelementptr inbounds nuw i8, ptr %1, i64 48
  %19 = load i32, ptr %18, align 8
  %20 = getelementptr inbounds nuw i8, ptr %2, i64 48
  %21 = load i32, ptr %20, align 8
  %22 = add i32 %21, %19
  %23 = getelementptr inbounds nuw i8, ptr %0, i64 48
  store i32 %22, ptr %23, align 8
  %24 = getelementptr inbounds nuw i8, ptr %0, i64 56
  store double %5, ptr %24, align 8
  %25 = getelementptr inbounds nuw i8, ptr %0, i64 64
  store double %17, ptr %25, align 8
  %26 = getelementptr inbounds nuw i8, ptr %0, i64 40
  store double %15, ptr %26, align 8
  %27 = getelementptr inbounds nuw i8, ptr %1, i64 16
  %28 = load ptr, ptr %27, align 8
  %29 = getelementptr inbounds nuw i8, ptr %28, i64 40
  %30 = load i32, ptr %29, align 8
  %31 = getelementptr inbounds nuw i8, ptr %2, i64 16
  %32 = load ptr, ptr %31, align 8
  %33 = getelementptr inbounds nuw i8, ptr %32, i64 40
  %34 = load i32, ptr %33, align 8
  %. = tail call i32 @llvm.smax.i32(i32 %30, i32 %34)
  %35 = getelementptr inbounds nuw i8, ptr %0, i64 16
  %36 = load ptr, ptr %35, align 8
  %37 = getelementptr inbounds nuw i8, ptr %36, i64 40
  store i32 %., ptr %37, align 8
  ret void
}